target datalayout = "e-m:e-p270:32:32-p271:32:32-p272:64:64-i64:64-i128:128-f80:128-n8:16:32:64-S128"
target triple = "x86_64-pc-linux-gnu"

%union.pthread_mutex_t = type { %struct.__pthread_mutex_s }
%struct.__pthread_mutex_s = type { i32, i32, i32, i32, i32, i16, i16, %struct.__pthread_internal_list }
%struct.__pthread_internal_list = type { ptr, ptr }
%struct.pmix_tma = type { ptr, ptr, ptr, ptr, ptr, ptr, ptr, ptr }
%struct.pmix_mca_base_var_enum_t = type { %struct.pmix_object_t, i8, ptr, ptr, ptr, ptr, ptr, ptr, i32, ptr }
%struct.pmix_object_t = type { %union.pthread_mutex_t, ptr, i32, %struct.pmix_tma }

; Function Attrs: nounwind uwtable
define internal void @pmix_mca_base_var_enum_constructor(ptr noundef %0) #0 {
  %2 = alloca ptr, align 8
  store ptr %0, ptr %2, align 8, !tbaa !3
  %3 = load ptr, ptr %2, align 8, !tbaa !3
  %4 = getelementptr inbounds nuw i8, ptr %3, i64 120
  call void @llvm.memset.p0.i64(ptr align 1 %4, i8 0, i64 72, i1 false)
  %5 = load ptr, ptr %2, align 8, !tbaa !3
  %6 = getelementptr inbounds nuw %struct.pmix_mca_base_var_enum_t, ptr %5, i32 0, i32 4
  store ptr @enum_get_value, ptr %6, align 8, !tbaa !8
  %7 = load ptr, ptr %2, align 8, !tbaa !3
  %8 = getelementptr inbounds nuw %struct.pmix_mca_base_var_enum_t, ptr %7, i32 0, i32 3
  store ptr @enum_get_count, ptr %8, align 8, !tbaa !17
  %9 = load ptr, ptr %2, align 8, !tbaa !3
  %10 = getelementptr inbounds nuw %struct.pmix_mca_base_var_enum_t, ptr %9, i32 0, i32 5
  store ptr @enum_value_from_string, ptr %10, align 8, !tbaa !18
  %11 = load ptr, ptr %2, align 8, !tbaa !3
  %12 = getelementptr inbounds nuw %struct.pmix_mca_base_var_enum_t, ptr %11, i32 0, i32 6
  store ptr @enum_string_from_value, ptr %12, align 8, !tbaa !19
  %13 = load ptr, ptr %2, align 8, !tbaa !3
  %14 = getelementptr inbounds nuw %struct.pmix_mca_base_var_enum_t, ptr %13, i32 0, i32 7
  store ptr @enum_dump, ptr %14, align 8, !tbaa !20
  %15 = load ptr, ptr %2, align 8, !tbaa !3
  %16 = getelementptr inbounds nuw %struct.pmix_mca_base_var_enum_t, ptr %15, i32 0, i32 1
  store i8 0, ptr %16, align 8, !tbaa !21
  ret void
}