; Function Attrs: mustprogress nofree norecurse nosync nounwind willreturn memory(argmem: write) uwtable
define internal void @pmix_mca_base_var_enum_constructor(ptr noundef writeonly captures(none) initializes((120, 192)) %0) #0 {
  %2 = getelementptr inbounds nuw i8, ptr %0, i64 120
  %3 = getelementptr inbounds nuw i8, ptr %0, i64 121
  tail call void @llvm.memset.p0.i64(ptr noundef nonnull align 1 dereferenceable(72) %3, i8 0, i64 71, i1 false)
  %4 = getelementptr inbounds nuw i8, ptr %0, i64 144
  store ptr @enum_get_value, ptr %4, align 8, !tbaa !3
  %5 = getelementptr inbounds nuw i8, ptr %0, i64 136
  store ptr @enum_get_count, ptr %5, align 8, !tbaa !15
  %6 = getelementptr inbounds nuw i8, ptr %0, i64 152
  store ptr @enum_value_from_string, ptr %6, align 8, !tbaa !16
  %7 = getelementptr inbounds nuw i8, ptr %0, i64 160
  store ptr @enum_string_from_value, ptr %7, align 8, !tbaa !17
  %8 = getelementptr inbounds nuw i8, ptr %0, i64 168
  store ptr @enum_dump, ptr %8, align 8, !tbaa !18
  store i8 0, ptr %2, align 8, !tbaa !19
  ret void
}